target datalayout = "e-m:e-p270:32:32-p271:32:32-p272:64:64-i64:64-i128:128-f80:128-n8:16:32:64-S128"
target triple = "x86_64-pc-linux-gnu"

@fsync_components = external global i32, align 4
@use_fsync = external global i32, align 4
@.str.6 = private unnamed_addr constant [15 x i8] c"GIT_TEST_FSYNC\00", align 1
@fsync_method = external global i32, align 4

; Function Attrs: nounwind uwtable
define internal i32 @maybe_fsync(i32 noundef %0) #0 {
  %2 = alloca i32, align 4
  %3 = alloca i32, align 4
  store i32 %0, ptr %3, align 4, !tbaa !11
  %4 = load i32, ptr @use_fsync, align 4, !tbaa !11
  %5 = icmp slt i32 %4, 0
  br i1 %5, label %6, label %8

6:                                                ; preds = %1
  %7 = call i32 @git_env_bool(ptr noundef @.str.6, i32 noundef 1)
  store i32 %7, ptr @use_fsync, align 4, !tbaa !11
  br label %8

8:                                                ; preds = %6, %1
  %9 = load i32, ptr @use_fsync, align 4, !tbaa !11
  %10 = icmp ne i32 %9, 0
  br i1 %10, label %12, label %11

11:                                               ; preds = %8
  store i32 0, ptr %2, align 4
  br label %23

12:                                               ; preds = %8
  %13 = load i32, ptr @fsync_method, align 4, !tbaa !11
  %14 = icmp eq i32 %13, 1
  br i1 %14, label %15, label %20

15:                                               ; preds = %12
  %16 = load i32, ptr %3, align 4, !tbaa !11
  %17 = call i32 @git_fsync(i32 noundef %16, i32 noundef 0)
  %18 = icmp sge i32 %17, 0
  br i1 %18, label %19, label %20

19:                                               ; preds = %15
  store i32 0, ptr %2, align 4
  br label %23

20:                                               ; preds = %15, %12
  %21 = load i32, ptr %3, align 4, !tbaa !11
  %22 = call i32 @git_fsync(i32 noundef %21, i32 noundef 1)
  store i32 %22, ptr %2, align 4
  br label %23

23:                                               ; preds = %20, %19, %11
  %24 = load i32, ptr %2, align 4
  ret i32 %24
}

; Function Attrs: nounwind uwtable
define dso_local i32 @fsync_component(i32 noundef %0, i32 noundef %1) #0 {
  %3 = alloca i32, align 4
  %4 = alloca i32, align 4
  %5 = alloca i32, align 4
  store i32 %0, ptr %4, align 4, !tbaa !11
  store i32 %1, ptr %5, align 4, !tbaa !11
  %6 = load i32, ptr @fsync_components, align 4, !tbaa !11
  %7 = load i32, ptr %4, align 4, !tbaa !11
  %8 = and i32 %6, %7
  %9 = icmp ne i32 %8, 0
  br i1 %9, label %10, label %13

10:                                               ; preds = %2
  %11 = load i32, ptr %5, align 4, !tbaa !11
  %12 = call i32 @maybe_fsync(i32 noundef %11)
  store i32 %12, ptr %3, align 4
  br label %14

13:                                               ; preds = %2
  store i32 0, ptr %3, align 4
  br label %14

14:                                               ; preds = %13, %10
  %15 = load i32, ptr %3, align 4
  ret i32 %15
}