; Function Attrs: nounwind uwtable
define dso_local i32 @fsync_component(i32 noundef %0, i32 noundef %1) local_unnamed_addr #0 {
  %3 = load i32, ptr @fsync_components, align 4, !tbaa !9
  %4 = and i32 %3, %0
  %.not = icmp eq i32 %4, 0
  br i1 %.not, label %maybe_fsync.exit, label %5

5:                                                ; preds = %2
  %6 = load i32, ptr @use_fsync, align 4, !tbaa !9
  %7 = icmp slt i32 %6, 0
  br i1 %7, label %8, label %10

8:                                                ; preds = %5
  %9 = tail call i32 @git_env_bool(ptr noundef nonnull @.str.6, i32 noundef 1) #8
  store i32 %9, ptr @use_fsync, align 4, !tbaa !9
  br label %10

10:                                               ; preds = %8, %5
  %11 = phi i32 [ %9, %8 ], [ %6, %5 ]
  %.not.i = icmp eq i32 %11, 0
  br i1 %.not.i, label %maybe_fsync.exit, label %12

12:                                               ; preds = %10
  %13 = load i32, ptr @fsync_method, align 4, !tbaa !9
  %14 = icmp eq i32 %13, 1
  br i1 %14, label %15, label %18

15:                                               ; preds = %12
  %16 = tail call i32 @git_fsync(i32 noundef %1, i32 noundef 0) #8
  %17 = icmp sgt i32 %16, -1
  br i1 %17, label %maybe_fsync.exit, label %18

18:                                               ; preds = %15, %12
  %19 = tail call i32 @git_fsync(i32 noundef %1, i32 noundef 1) #8
  br label %maybe_fsync.exit

maybe_fsync.exit:                                 ; preds = %18, %15, %10, %2
  %.0 = phi i32 [ 0, %2 ], [ %19, %18 ], [ 0, %10 ], [ 0, %15 ]
  ret i32 %.0
}